# file opened: src/main.asm
  1   0000
  2   0000              	DEVICE ZXSPECTRUMNEXT					; Allow the Next paging and instructions
  3   0000              	ORG $8000
  4   8000
  5   8000              start:
  6   8000 CD 0B 80     	CALL Setup
  7   8003
  8   8003 CD 39 C0     	CALL ShowSprites
  9   8006
 10   8006              ;----------------------------------------------------------;
 11   8006              ;                      Game Loop                           ;
 12   8006              ;----------------------------------------------------------;
 13   8006              MainLoop:
 14   8006 CD 61 C0     	CALL HandleJoystingInput
 15   8009
 16   8009 18 FB        	JR MainLoop
 17   800B
 18   800B              ;----------------------------------------------------------;
 19   800B              ;                      Routines                            ;
 20   800B              ;----------------------------------------------------------;
 21   800B              	INCLUDE "src/constants.asm"
# file opened: ./src/constants.asm
  1+  800B              ;----------------------------------------------------------;
  2+  800B              ;                     ROM routines                         ;
  3+  800B              ;----------------------------------------------------------;
  4+  800B              ROM_CLS				EQU $0DAF
  5+  800B              ROM_PRINT			EQU $10
  6+  800B
  7+  800B              ;----------------------------------------------------------;
  8+  800B              ;                  PRINT control codes                     ;
  9+  800B              ;----------------------------------------------------------;
 10+  800B              PR_INK				EQU $10
 11+  800B              PR_PAPER			EQU $11
 12+  800B              PR_FLASH			EQU $12
 13+  800B              PR_BRIGHT			EQU $13
 14+  800B              PR_INVERSE			EQU $14
 15+  800B              PR_OVER				EQU $15
 16+  800B              PR_AT				EQU $16
 17+  800B              PR_TAB				EQU $17
 18+  800B              PR_CR				EQU $0C
 19+  800B
 20+  800B              ;----------------------------------------------------------;
 21+  800B              ;                          MMU                             ;
 22+  800B              ;----------------------------------------------------------;
 23+  800B              MMU_SLOT_0 			EQU $50
 24+  800B              MMU_SLOT_1 			EQU $51
 25+  800B              MMU_SLOT_2 			EQU $52
 26+  800B              MMU_SLOT_3 			EQU $53
 27+  800B              MMU_SLOT_4 			EQU $54
 28+  800B              MMU_SLOT_5 			EQU $55
 29+  800B              MMU_SLOT_6 			EQU $56
 30+  800B              MMU_SLOT_7 			EQU $57
 31+  800B
 32+  800B              ;----------------------------------------------------------;
 33+  800B              ;          		         Layer 2	   	                   ;
 34+  800B              ;----------------------------------------------------------;
 35+  800B              ; bit 7-6	Video RAM bank select (write/read paging)
 36+  800B              ; bit 5-4	Reserved, write 0
 37+  800B              ; bit 3	Use Shadow Layer 2 for paging - Layer 2 RAM Shadow Page Register ($13)
 38+  800B              ; bit 2	Enable Layer 2 read-only paging
 39+  800B              ; bit 1	Layer 2 visible - Layer 2 RAM Page Register ($12)
 40+  800B              ; bit 0	Enable Layer 2 write-only paging
 41+  800B              L2_REG				EQU $70
 42+  800B
 43+  800B              ;----------------------------------------------------------;
 44+  800B              ;          		         Sprites	   	                   ;
 45+  800B              ;----------------------------------------------------------;
 46+  800B              SPR_NR				EQU $34			; Sprite Number (R/W)
 47+  800B              SPR_X				EQU $35			; Sprite X coordinate
 48+  800B              SPR_Y				EQU $36			; Sprite Y coordinate
 49+  800B
 50+  800B              ; bits 7-4 = Palette offset added to top 4 bits of sprite colour index
 51+  800B              ; bit 3 = X mirror
 52+  800B              ; bit 2 = Y mirror
 53+  800B              ; bit 1 = Rotate
 54+  800B              ; bit 0 = MSB of X coordinate (palette offset indicator for relative sprites)
 55+  800B              SPR_ATTR_2			EQU $37
 56+  800B
 57+  800B              ; bit 7 = Visible flag (1 = displayed)
 58+  800B              ; bit 6 = Extended attribute (1 = Sprite Attribute 4 is active)
 59+  800B              ; bits 5-0 = Pattern used by sprite (0-63)
 60+  800B              SPR_ATTR_3			EQU $38
 61+  800B
 62+  800B              ; bit 7 = H (1 = sprite uses 4-bit patterns)
 63+  800B              ; bit 6 = N6 (0 = use the first 128 bytes of the pattern else use the last 128 bytes)
 64+  800B              ; bit 5 = 1 if relative sprites are composite, 0 if relative sprites are unified Scaling
 65+  800B              ; bits 4-3 = X scaling (00 = 1x, 01 = 2x, 10 = 4x, 11 = 8x)
 66+  800B              ; bits 2-1 = Y scaling (00 = 1x, 01 = 2x, 10 = 4x, 11 = 8x)
 67+  800B              ; bit 0 = MSB of Y coordinate
 68+  800B              SPR_ATTR_4			EQU $39
 69+  800B
 70+  800B              ; Sprite and Layers system
 71+  800B              ; bit 7 = LoRes mode, 128 x 96 x 256 colours (1 = enabled)
 72+  800B              ; bit 6 = Sprite priority (1 = sprite 0 on top, 0 = sprite 127 on top)
 73+  800B              ; bit 5 = Enable sprite clipping in over border mode (1 = enabled)
 74+  800B              ; bits 4-2 = set layers priorities:
 75+  800B              ; Reset default is 000, sprites over the Layer 2, over the ULA graphics
 76+  800B              ; 000 - S L U
 77+  800B              ; 001 - L S U
 78+  800B              ; 010 - S U L - (Top - Sprites, Enhanced_ULA, Layer 2)
 79+  800B              ; 011 - L U S
 80+  800B              ; 100 - U S L
 81+  800B              ; 101 - U L S
 82+  800B              ; 110 - S(U+L) ULA and Layer 2 combined, colours clamped to 7
 83+  800B              ; 111 - S(U+L-5) ULA and Layer 2 combined, colours clamped to [0,7]
 84+  800B              ; bit 1 = Over border (1 = yes)(Back to 0 after a reset)
 85+  800B              ; bit 0 = Sprites visible (1 = visible)(Back to 0 after a reset)
 86+  800B              SPR_SETUP			EQU $15
 87+  800B
 88+  800B
 89+  800B              SPR_JETMAN_ID		EQU $0			; Jetman/player sprite
 90+  800B
 91+  800B              ;----------------------------------------------------------;
 92+  800B              ;                   Charactes Codes                        ;
 93+  800B              ;----------------------------------------------------------;
 94+  800B              CH_ENTER			EQU $0D			; Character code for Enter key.
 95+  800B
 96+  800B              ;----------------------------------------------------------;
 97+  800B              ;                     Input processing                     ;
 98+  800B              ;----------------------------------------------------------;
 99+  800B              KB_6_TO_0			EQU $EF			; Mask for keyboard input from 6 to 0 (to read arrow keys: up/down/right).
100+  800B              KB_5_TO_1			EQU $F7			; Mask for keyboard input from 5 to 1 (to read left arrow key).
101+  800B              KB_V_TO_Z			EQU $FE			; Mask for keyboard input from V to Z to read X for fire.
102+  800B
103+  800B              KB_REG				EQU $FE 		; Activated keyboard input
104+  800B
105+  800B              JOY_MASK			EQU $20 		; Mask to read Kempston input
106+  800B              JOY_REG				EQU $1F			; Activates Kempston input
# file closed: ./src/constants.asm
 22   800B              	INCLUDE "src/setup.asm"
# file opened: ./src/setup.asm
  1+  800B              Setup:
  2+  800B              	;DI										; Disable Interupts, use wait_for_scanline instead.
  3+  800B
  4+  800B ED 91 70 00  	nextreg L2_REG, %00000000     			; Layer 2 screen resolution 256 x 192 x8bpp
  5+  800F
  6+  800F CD AF 0D     	CALL ROM_CLS							;  Clear screen.
  7+  8012
  8+  8012 C9           	RET
# file closed: ./src/setup.asm
 23   8013              	INCLUDE "src/data.asm"
# file opened: ./src/data.asm
  1+  8013              ;----------------------------------------------------------;
  2+  8013              ;                     Jetman/Player                        ;
  3+  8013              ;----------------------------------------------------------;
  4+  8013 0A           JetX				BYTE 10
  5+  8014 0A           JetY 				BYTE 10
  6+  8015
# file closed: ./src/data.asm
 24   8015              	INCLUDE "src/sprites.asm"
# file opened: ./src/sprites.asm
  1+  8015              ; Loads
  2+  8015              LoadSprites:
  3+  8015 22 2D 80     	LD (.dmaSource), HL						; Copy sprite sheet address from HL
  4+  8018 ED 43 2F 80  	LD (.dmaLength), BC						; Copy length in bytes from BC
  5+  801C 01 3B 30     	LD BC, $303B							; Prepare port for sprite index
  6+  801F ED 79        	OUT (C), A								; Load index of first sprite
  7+  8021 21 2B 80     	LD HL, .dmaProgram						; Setup source for OTIR
  8+  8024 06 0E        	LD B, .dmaProgramLength 				; Setup length for OTIR
  9+  8026 0E 6B        	LD C, $6B								; Setup DMA port
 10+  8028 ED B3        	OTIR									; Invoke DMA code
 11+  802A C9           	RET
 12+  802B
 13+  802B              .dmaProgram:
 14+  802B 83           	DB %10000011							; WR6 - Disable DMA
 15+  802C 7D           	DB %01111101							; WR0 - append length + port A address, A->B
 16+  802D
 17+  802D              .dmaSource:
 18+  802D 00 00        	DW 0									; WR0 par 1&2 - port A start address
 19+  802F
 20+  802F              .dmaLength:
 21+  802F 00 00        	DW 0									; WR0 par 3&4 - transfer length
 22+  8031 14           	DB %00010100							; WR1 - A incr., A=memory
 23+  8032 28           	DB %00101000							; WR2 - B fixed, B=I/O
 24+  8033 AD           	DB %10101101							; WR4 - continuous, append port B address
 25+  8034 5B 00        	DW $005B								; WR4 par 1&2 - port B address
 26+  8036 82           	DB %10000010							; WR5 - stop on end of block, CE only
 27+  8037 CF           	DB %11001111							; WR6 - load addresses into DMA counters
 28+  8038 87           	DB %10000111							; WR6 - enable DMA
 29+  8039              .dmaProgramLength = $-.dmaProgram
 30+  8039
 31+  8039              sprites:
 32+  8039              	INCBIN "assets/sprites.spr"
 33+  C039
 34+  C039              ShowSprites:
 35+  C039 21 39 80     	LD HL, sprites							; Sprites data source
 36+  C03C 01 00 05     	LD BC, 16*16*5							; Copy 5 sprites, each 16x16 pixels
 37+  C03F 3E 00        	LD A, 0									; Start with first sprite
 38+  C041 CD 15 80     	CALL LoadSprites						; Load sprites to Hardware
 39+  C044
 40+  C044 ED 91 15 43  	NEXTREG SPR_SETUP, %01000011			; Sprite 0 on top, SLU, sprites visible
 41+  C048
 42+  C048 ED 91 34 00  	NEXTREG SPR_NR, SPR_JETMAN_ID			; Player
 43+  C04C
 44+  C04C 3A 13 80     	LD A, (JetX)							; Set player X position
 45+  C04F ED 92 35     	NEXTREG SPR_X, A
 46+  C052
 47+  C052 3A 14 80     	LD A, (JetY)							; Set player Y position
 48+  C055 ED 92 36     	NEXTREG SPR_Y, A
 49+  C058
 50+  C058 ED 91 37 00  	NEXTREG SPR_ATTR_2, %00000000 			; Palette offset, no mirror, no rotation
 51+  C05C ED 91 38 80  	NEXTREG SPR_ATTR_3, %10000000			; Visible, no byte 4, pattern 0
 52+  C060
 53+  C060              	;NEXTREG SPR_NR, 1
 54+  C060              	;NEXTREG SPR_X, 50
 55+  C060              	;NEXTREG SPR_Y, 80
 56+  C060              	;NEXTREG SPR_ATTR_2, %00000000
 57+  C060              	;NEXTREG SPR_ATTR_3, %10000000
 58+  C060
 59+  C060              	;NEXTREG SPR_NR, 2
 60+  C060              	;NEXTREG SPR_X, 250
 61+  C060              	;NEXTREG SPR_Y, 250
 62+  C060              	;NEXTREG SPR_ATTR_2, %00000000
 63+  C060              	;NEXTREG SPR_ATTR_3, %10000000
 64+  C060
 65+  C060 C9           	RET
# file closed: ./src/sprites.asm
 25   C061              	INCLUDE "src/game_input.asm"
# file opened: ./src/game_input.asm
  1+  C061              ;----------------------------------------------------------;
  2+  C061              ;                     Input processing                     ;
  3+  C061              ;----------------------------------------------------------;
  4+  C061              HandleJoystingInput:
  5+  C061              	; Key Up pressed ?
  6+  C061 3E EF        	LD A, KB_6_TO_0							; $EF -> A (6...0)
  7+  C063 DB FE        	IN A, (KB_REG) 							; Read keyboard input into A
  8+  C065 CB 5F        	BIT 3, A								; Bit 3 reset -> Up pessed
  9+  C067 CC BC C0     	CALL Z, MoveUp
 10+  C06A
 11+  C06A              	; Key Down pressed ?
 12+  C06A 3E EF        	LD A, KB_6_TO_0							; $EF -> A (6...0)
 13+  C06C DB FE        	IN A, (KB_REG) 							; Read keyboard input into A
 14+  C06E CB 67        	BIT 4, A								; Bit 4 reset -> Down pessed
 15+  C070 CC C2 C0     	CALL Z, MoveDown
 16+  C073
 17+  C073              	; Key Rright pressed ?
 18+  C073 3E EF        	LD A, KB_6_TO_0							; $EF -> A (6...0)
 19+  C075 DB FE        	IN A, (KB_REG) 							; Read keyboard input into A
 20+  C077 CB 57        	BIT 2, A								; Bit 2 reset -> Rright pessed
 21+  C079 CC DC C0     	CALL Z, MoveRight
 22+  C07C
 23+  C07C              	; Key Left pressed ?
 24+  C07C 3E F7        	LD A, KB_5_TO_1							; $FD -> A (5...1)
 25+  C07E DB FE        	IN A, (KB_REG) 							; Read keyboard input into A
 26+  C080 CB 67        	BIT 4, A								; Bit 4 reset -> Left pessed
 27+  C082 CC E2 C0     	CALL Z, MoveLeft
 28+  C085
 29+  C085              	; Key Fire (Z) pressed ?
 30+  C085 3E FE        	LD A, KB_V_TO_Z							; $FD -> A (5...1)
 31+  C087 DB FE        	IN A, (KB_REG) 							; Read keyboard input into A
 32+  C089 CB 4F        	BIT 1, A								; Bit 1 reset -> Z pessed
 33+  C08B CC E8 C0     	CALL Z, PressFire
 34+  C08E
 35+  C08E              	; Joystick up pressed ?
 36+  C08E 3E 20        	LD A, JOY_MASK							; Activete joystick register
 37+  C090 DB 1F        	IN A, (JOY_REG) 						; Read joystick input into A
 38+  C092 CB 5F        	BIT 3, A								; Bit 3 set -> Up pessed
 39+  C094 C4 BC C0     	CALL NZ, MoveUp
 40+  C097
 41+  C097              	; Joystick down pressed ?
 42+  C097 3E 20        	LD A, JOY_MASK							; Activete joystick register
 43+  C099 DB 1F        	IN A, (JOY_REG) 						; Read joystick input into A
 44+  C09B CB 57        	BIT 2, A								; Bit 2 set -> Down pessed
 45+  C09D C4 C2 C0     	CALL NZ, MoveDown
 46+  C0A0
 47+  C0A0              	; Joystick right pressed ?
 48+  C0A0 3E 20        	LD A, JOY_MASK							; Activete joystick register
 49+  C0A2 DB 1F        	IN A, (JOY_REG) 						; Read joystick input into A
 50+  C0A4 CB 47        	BIT 0, A								; Bit 0 set -> Right pessed
 51+  C0A6 C4 DC C0     	CALL NZ, MoveRight
 52+  C0A9
 53+  C0A9              	; Joystick left pressed ?
 54+  C0A9 3E 20        	LD A, JOY_MASK							; Activete joystick register
 55+  C0AB DB 1F        	IN A, (JOY_REG) 						; Read joystick input into A
 56+  C0AD CB 4F        	BIT 1, A								; Bit 1 set -> Left pessed
 57+  C0AF C4 E2 C0     	CALL NZ, MoveLeft
 58+  C0B2
 59+  C0B2              	; Joystick fire pressed ?
 60+  C0B2 3E 20        	LD A, JOY_MASK							; Activete joystick register
 61+  C0B4 DB 1F        	IN A, (JOY_REG) 						; Read joystick input into A
 62+  C0B6 E6 70        	AND %01110000							; Any of three fires pressed?
 63+  C0B8 C4 E8 C0     	CALL NZ, PressFire
 64+  C0BB
 65+  C0BB C9           	RET
# file closed: ./src/game_input.asm
 26   C0BC              	INCLUDE "src/jetman_move.asm"
# file opened: ./src/jetman_move.asm
  1+  C0BC              MoveUp:
  2+  C0BC 3E 55        	LD A, 'U'								; Print U
  3+  C0BE CD EE C0     	CALL PrintDirection
  4+  C0C1 C9           	RET
  5+  C0C2
  6+  C0C2              MoveDown:
  7+  C0C2 3E 44        	LD A, 'D'								; Print D
  8+  C0C4 CD EE C0     	CALL PrintDirection
  9+  C0C7
 10+  C0C7              	; Update X position
 11+  C0C7 3A 13 80     	LD A, (JetX)
 12+  C0CA 3D           	DEC A
 13+  C0CB 32 13 80     	LD (JetX), A
 14+  C0CE
 15+  C0CE ED 91 34 00  	NEXTREG SPR_NR, SPR_JETMAN_ID			; Player
 16+  C0D2 ED 92 35     	NEXTREG SPR_X, A
 17+  C0D5
 18+  C0D5 3E FF        	LD A, 255
 19+  C0D7 3C           	INC A
 20+  C0D8 3C           	INC A
 21+  C0D9 18 FE        	JR $
 22+  C0DB
 23+  C0DB C9           	RET
 24+  C0DC
 25+  C0DC              MoveRight:
 26+  C0DC 3E 52        	LD A, 'R'								; Print R
 27+  C0DE CD EE C0     	CALL PrintDirection
 28+  C0E1 C9           	RET
 29+  C0E2
 30+  C0E2              MoveLeft:
 31+  C0E2 3E 4C        	LD A, 'L'								; Print L
 32+  C0E4 CD EE C0     	CALL PrintDirection
 33+  C0E7 C9           	RET
 34+  C0E8
 35+  C0E8              PressFire:
 36+  C0E8 3E 46        	LD A, 'F'								; Print F
 37+  C0EA CD EE C0     	CALL PrintDirection
 38+  C0ED C9           	RET
 39+  C0EE
 40+  C0EE              ; A - contains character to print
 41+  C0EE              PrintDirection
 42+  C0EE F5           	PUSH AF									; Keep A containing character to print
 43+  C0EF 3E 16        	LD A, PR_AT								; AT control character
 44+  C0F1 D7           	RST ROM_PRINT
 45+  C0F2 3E 01        	LD A, 1									; Y
 46+  C0F4 D7           	RST ROM_PRINT
 47+  C0F5 3E 0F        	LD A, 15								; X
 48+  C0F7 D7           	RST ROM_PRINT
 49+  C0F8 3E 10        	LD A, PR_INK							; Ink colour
 50+  C0FA D7           	RST ROM_PRINT
 51+  C0FB 3E 02        	LD A, 2									; Red
 52+  C0FD D7           	RST ROM_PRINT
 53+  C0FE F1           	POP AF									; Restore character for printing
 54+  C0FF D7           	RST ROM_PRINT
 55+  C100 C9           	RET
# file closed: ./src/jetman_move.asm
 27   C101
 28   C101              ;----------------------------------------------------------;
 29   C101              ;                      sjasmplus                           ;
 30   C101              ;----------------------------------------------------------;
 31   C101              	; https://z00m128.github.io/sjasmplus/documentation.html
 32   C101
 33   C101              	CSPECTMAP "jetman.map"					; Generate a map file for use with Cspect
 34   C101
 35   C101              	; This sets the name of the project, the start address,
 36   C101              	; and the initial stack pointer.
 37   C101              	SAVENEX OPEN "jetman.nex", start, $FF40
 38   C101
 39   C101              	; This asserts the minimum core version.  Set it to the core version
 40   C101              	; you are developing on.
 41   C101              	SAVENEX CORE 2,0,0
 42   C101
 43   C101              	; This sets the border colour while loading (in this case white),
 44   C101              	; what to do with the file handle of the nex file when starting (0 =
 45   C101              	; close file handle as we're not going to access the project.nex
 46   C101              	; file after starting.  See sjasmplus documentation), whether
 47   C101              	; we preserve the next registers (0 = no, we set to default), and
 48   C101              	; whether we require the full 2MB expansion (0 = no we don't).
 49   C101              	SAVENEX CFG 7,0,0,0
 50   C101
 51   C101              	; Generate the Nex file automatically based on which pages you use.
 52   C101              	SAVENEX AUTO
# file closed: src/main.asm
